SF:/Volumes/Documents/defiSucks/youdusa-rs/src/ast.rs
FN:24,_RNvMNtCsc79359SY8tW_7youdusa3astNtB2_19FunctionDeclaration3new
FN:34,_RNvMNtCsc79359SY8tW_7youdusa3astNtB2_19FunctionDeclaration9add_child
FN:38,_RNvMNtCsc79359SY8tW_7youdusa3astNtB2_19FunctionDeclaration4name
FN:42,_RNvMNtCsc79359SY8tW_7youdusa3astNtB2_19FunctionDeclaration8children
FN:69,_RNvMs_NtCsc79359SY8tW_7youdusa3astNtB4_9Statement9new_prank
FN:78,_RNvMs_NtCsc79359SY8tW_7youdusa3astNtB4_9Statement8new_roll
FN:87,_RNvMs_NtCsc79359SY8tW_7youdusa3astNtB4_9Statement8new_warp
FN:96,_RNvMs_NtCsc79359SY8tW_7youdusa3astNtB4_9Statement17new_contract_call
FN:24,_RNvMNtCsiQdczpv6fkd_7youdusa3astNtB2_19FunctionDeclaration3new
FN:34,_RNvMNtCsiQdczpv6fkd_7youdusa3astNtB2_19FunctionDeclaration9add_child
FN:38,_RNvMNtCsiQdczpv6fkd_7youdusa3astNtB2_19FunctionDeclaration4name
FN:42,_RNvMNtCsiQdczpv6fkd_7youdusa3astNtB2_19FunctionDeclaration8children
FN:69,_RNvMs_NtCsiQdczpv6fkd_7youdusa3astNtB4_9Statement9new_prank
FN:78,_RNvMs_NtCsiQdczpv6fkd_7youdusa3astNtB4_9Statement8new_roll
FN:87,_RNvMs_NtCsiQdczpv6fkd_7youdusa3astNtB4_9Statement8new_warp
FN:96,_RNvMs_NtCsiQdczpv6fkd_7youdusa3astNtB4_9Statement17new_contract_call
FNDA:4,_RNvMNtCsc79359SY8tW_7youdusa3astNtB2_19FunctionDeclaration3new
FNDA:88,_RNvMNtCsc79359SY8tW_7youdusa3astNtB2_19FunctionDeclaration9add_child
FNDA:4,_RNvMNtCsc79359SY8tW_7youdusa3astNtB2_19FunctionDeclaration4name
FNDA:4,_RNvMNtCsc79359SY8tW_7youdusa3astNtB2_19FunctionDeclaration8children
FNDA:22,_RNvMs_NtCsc79359SY8tW_7youdusa3astNtB4_9Statement9new_prank
FNDA:22,_RNvMs_NtCsc79359SY8tW_7youdusa3astNtB4_9Statement8new_roll
FNDA:22,_RNvMs_NtCsc79359SY8tW_7youdusa3astNtB4_9Statement8new_warp
FNDA:22,_RNvMs_NtCsc79359SY8tW_7youdusa3astNtB4_9Statement17new_contract_call
FNDA:11,_RNvMNtCsiQdczpv6fkd_7youdusa3astNtB2_19FunctionDeclaration3new
FNDA:8,_RNvMNtCsiQdczpv6fkd_7youdusa3astNtB2_19FunctionDeclaration9add_child
FNDA:1,_RNvMNtCsiQdczpv6fkd_7youdusa3astNtB2_19FunctionDeclaration4name
FNDA:1,_RNvMNtCsiQdczpv6fkd_7youdusa3astNtB2_19FunctionDeclaration8children
FNDA:2,_RNvMs_NtCsiQdczpv6fkd_7youdusa3astNtB4_9Statement9new_prank
FNDA:2,_RNvMs_NtCsiQdczpv6fkd_7youdusa3astNtB4_9Statement8new_roll
FNDA:2,_RNvMs_NtCsiQdczpv6fkd_7youdusa3astNtB4_9Statement8new_warp
FNDA:2,_RNvMs_NtCsiQdczpv6fkd_7youdusa3astNtB4_9Statement17new_contract_call
FNF:8
FNH:8
DA:24,15
DA:25,15
DA:26,15
DA:27,15
DA:28,15
DA:29,15
DA:30,15
DA:31,15
DA:32,15
DA:34,96
DA:35,96
DA:36,96
DA:38,5
DA:39,5
DA:40,5
DA:42,5
DA:43,5
DA:44,5
DA:69,24
DA:70,24
DA:71,24
DA:72,24
DA:73,24
DA:74,24
DA:75,24
DA:76,24
DA:78,24
DA:79,24
DA:80,24
DA:81,24
DA:82,24
DA:83,24
DA:84,24
DA:85,24
DA:87,24
DA:88,24
DA:89,24
DA:90,24
DA:91,24
DA:92,24
DA:93,24
DA:94,24
DA:96,24
DA:97,24
DA:98,24
DA:99,24
DA:100,24
DA:101,24
DA:102,24
DA:103,24
DA:104,24
DA:105,24
DA:106,24
DA:107,24
DA:108,24
BRF:0
BRH:0
LF:55
LH:55
end_of_record
SF:/Volumes/Documents/defiSucks/youdusa-rs/src/emitter.rs
FN:11,_RNvMNtCsc79359SY8tW_7youdusa7emitterNtB2_7Emitter3new
FN:18,_RNvMNtCsc79359SY8tW_7youdusa7emitterNtB2_7Emitter4emit
FN:29,_RNvMNtCsc79359SY8tW_7youdusa7emitterNtB2_7Emitter11get_emitted
FN:34,_RNvMNtCsc79359SY8tW_7youdusa7emitterNtB2_7Emitter25emit_function_declaration
FN:51,_RNvMNtCsc79359SY8tW_7youdusa7emitterNtB2_7Emitter14emit_statement
FN:59,_RNvMNtCsc79359SY8tW_7youdusa7emitterNtB2_7Emitter18emit_contract_call
FN:18,_RNvMNtCsiQdczpv6fkd_7youdusa7emitterNtB2_7Emitter4emit
FN:29,_RNvMNtCsiQdczpv6fkd_7youdusa7emitterNtB2_7Emitter11get_emitted
FN:11,_RNvMNtCsiQdczpv6fkd_7youdusa7emitterNtB2_7Emitter3new
FN:34,_RNvMNtCsiQdczpv6fkd_7youdusa7emitterNtB2_7Emitter25emit_function_declaration
FN:51,_RNvMNtCsiQdczpv6fkd_7youdusa7emitterNtB2_7Emitter14emit_statement
FN:59,_RNvMNtCsiQdczpv6fkd_7youdusa7emitterNtB2_7Emitter18emit_contract_call
FN:102,_RNvNtNtCsiQdczpv6fkd_7youdusa7emitter5testss_30test_emit_function_declaration
FN:112,_RNvNtNtCsiQdczpv6fkd_7youdusa7emitter5testss_37test_emit_contract_call_external_call
FN:135,_RNvNtNtCsiQdczpv6fkd_7youdusa7emitter5testss_37test_emit_contract_call_internal_call
FN:155,_RNvNtNtCsiQdczpv6fkd_7youdusa7emitter5testss_38test_emit_contract_call_cheatcode_call
FNDA:4,_RNvMNtCsc79359SY8tW_7youdusa7emitterNtB2_7Emitter3new
FNDA:4,_RNvMNtCsc79359SY8tW_7youdusa7emitterNtB2_7Emitter4emit
FNDA:4,_RNvMNtCsc79359SY8tW_7youdusa7emitterNtB2_7Emitter11get_emitted
FNDA:4,_RNvMNtCsc79359SY8tW_7youdusa7emitterNtB2_7Emitter25emit_function_declaration
FNDA:88,_RNvMNtCsc79359SY8tW_7youdusa7emitterNtB2_7Emitter14emit_statement
FNDA:88,_RNvMNtCsc79359SY8tW_7youdusa7emitterNtB2_7Emitter18emit_contract_call
FNDA:0,_RNvMNtCsiQdczpv6fkd_7youdusa7emitterNtB2_7Emitter4emit
FNDA:0,_RNvMNtCsiQdczpv6fkd_7youdusa7emitterNtB2_7Emitter11get_emitted
FNDA:4,_RNvMNtCsiQdczpv6fkd_7youdusa7emitterNtB2_7Emitter3new
FNDA:1,_RNvMNtCsiQdczpv6fkd_7youdusa7emitterNtB2_7Emitter25emit_function_declaration
FNDA:0,_RNvMNtCsiQdczpv6fkd_7youdusa7emitterNtB2_7Emitter14emit_statement
FNDA:3,_RNvMNtCsiQdczpv6fkd_7youdusa7emitterNtB2_7Emitter18emit_contract_call
FNDA:1,_RNvNtNtCsiQdczpv6fkd_7youdusa7emitter5testss_30test_emit_function_declaration
FNDA:1,_RNvNtNtCsiQdczpv6fkd_7youdusa7emitter5testss_37test_emit_contract_call_external_call
FNDA:1,_RNvNtNtCsiQdczpv6fkd_7youdusa7emitter5testss_37test_emit_contract_call_internal_call
FNDA:1,_RNvNtNtCsiQdczpv6fkd_7youdusa7emitter5testss_38test_emit_contract_call_cheatcode_call
FNF:10
FNH:10
DA:11,8
DA:12,8
DA:13,8
DA:14,8
DA:15,8
DA:18,4
DA:19,4
DA:20,4
DA:21,4
DA:23,0
DA:26,4
DA:27,4
DA:29,4
DA:30,4
DA:31,4
DA:34,5
DA:35,5
DA:36,5
DA:39,88
DA:40,88
DA:41,88
DA:42,0
DA:43,0
DA:48,5
DA:49,5
DA:51,88
DA:52,88
DA:53,88
DA:54,88
DA:55,88
DA:59,91
DA:60,91
DA:61,91
DA:62,91
DA:63,91
DA:64,91
DA:67,91
DA:68,90
DA:69,90
DA:70,90
DA:71,23
DA:72,67
DA:73,1
DA:76,91
DA:79,91
DA:80,23
DA:81,68
DA:84,91
DA:85,91
DA:86,91
DA:87,91
DA:88,91
DA:89,91
DA:90,23
DA:91,68
DA:93,91
DA:94,91
DA:102,1
DA:103,1
DA:104,1
DA:105,1
DA:106,1
DA:107,1
DA:108,1
DA:109,1
DA:112,1
DA:113,1
DA:114,1
DA:115,1
DA:116,1
DA:117,1
DA:118,1
DA:119,1
DA:120,1
DA:121,1
DA:122,1
DA:123,1
DA:124,1
DA:125,1
DA:126,1
DA:127,1
DA:128,1
DA:129,1
DA:130,1
DA:131,1
DA:132,1
DA:135,1
DA:136,1
DA:137,1
DA:138,1
DA:139,1
DA:140,1
DA:141,1
DA:142,1
DA:143,1
DA:144,1
DA:145,1
DA:146,1
DA:147,1
DA:148,1
DA:149,1
DA:150,1
DA:151,1
DA:152,1
DA:155,1
DA:156,1
DA:157,1
DA:158,1
DA:159,1
DA:160,1
DA:161,1
DA:162,1
DA:163,1
DA:164,1
DA:165,1
DA:166,1
DA:167,1
DA:168,1
DA:169,1
DA:170,1
DA:171,1
DA:172,1
BRF:0
BRH:0
LF:122
LH:119
end_of_record
SF:/Volumes/Documents/defiSucks/youdusa-rs/src/lib.rs
FN:17,_RINvCsc79359SY8tW_7youdusa13process_inputINtNtCsa9LKyxLwpOf_5alloc3vec3VechEECs2sHPaDrZ83v_16integration_test
FN:17,_RINvCsc79359SY8tW_7youdusa13process_inputpEB2_
FN:17,_RINvCsc79359SY8tW_7youdusa13process_inputNtNtNtCsiCh6V8dk32N_3std2io5stdio6StdoutECshggRH2I7pXz_7youdusa
FN:17,_RINvCsiQdczpv6fkd_7youdusa13process_inputpEB2_
FNDA:4,_RINvCsc79359SY8tW_7youdusa13process_inputINtNtCsa9LKyxLwpOf_5alloc3vec3VechEECs2sHPaDrZ83v_16integration_test
FNDA:0,_RINvCsc79359SY8tW_7youdusa13process_inputpEB2_
FNDA:0,_RINvCsc79359SY8tW_7youdusa13process_inputNtNtNtCsiCh6V8dk32N_3std2io5stdio6StdoutECshggRH2I7pXz_7youdusa
FNDA:0,_RINvCsiQdczpv6fkd_7youdusa13process_inputpEB2_
FNF:1
FNH:1
DA:17,4
DA:18,4
DA:19,4
DA:20,4
DA:21,4
DA:22,4
DA:23,4
DA:26,4
DA:27,7
DA:28,4
DA:29,4
DA:30,4
DA:31,4
DA:32,4
DA:33,4
DA:35,1
DA:37,4
DA:38,4
BRF:0
BRH:0
LF:18
LH:18
end_of_record
SF:/Volumes/Documents/defiSucks/youdusa-rs/src/main.rs
FN:46,_RNvCshggRH2I7pXz_7youdusa4main
FN:46,_RNvCseHIsMzX3DY5_7youdusa4main
FNDA:0,_RNvCshggRH2I7pXz_7youdusa4main
FNDA:0,_RNvCseHIsMzX3DY5_7youdusa4main
FNF:1
FNH:0
DA:46,0
DA:47,0
DA:48,0
DA:50,0
DA:52,0
DA:55,0
DA:56,0
DA:57,0
DA:61,0
DA:62,0
DA:64,0
DA:65,0
BRF:0
BRH:0
LF:12
LH:0
end_of_record
SF:/Volumes/Documents/defiSucks/youdusa-rs/src/parser.rs
FN:26,_RNvMNtCsc79359SY8tW_7youdusa6parserNtB2_6Parser12process_line
FN:45,_RNvMNtCsc79359SY8tW_7youdusa6parserNtB2_6Parser15get_reproducers
FN:49,_RNvMNtCsc79359SY8tW_7youdusa6parserNtB2_6Parser3new
FN:58,_RNvMNtCsc79359SY8tW_7youdusa6parserNtB2_6Parser21create_new_reproducer
FN:70,_RNvMNtCsc79359SY8tW_7youdusa6parserNtB2_6Parser21extract_property_name
FN:81,_RNvMNtCsc79359SY8tW_7youdusa6parserNtB2_6Parser25generate_unique_test_name
FN:96,_RNvMNtCsc79359SY8tW_7youdusa6parserNtB2_6Parser14create_new_ast
FN:103,_RNvMNtCsc79359SY8tW_7youdusa6parserNtB2_6Parser19add_new_call_to_ast
FN:137,_RNvMNtCsc79359SY8tW_7youdusa6parserNtB2_6Parser32generate_call_to_medusa_property
FN:156,_RNvMNtCsc79359SY8tW_7youdusa6parserNtB2_6Parser17parse_cheats_data
FN:183,_RNvMNtCsc79359SY8tW_7youdusa6parserNtB2_6Parser27parse_medusa_call_arguments
FN:30,_RNCNvMNtCsc79359SY8tW_7youdusa6parserNtB4_6Parser12process_line0B6_
FN:61,_RNCNvMNtCsc79359SY8tW_7youdusa6parserNtB4_6Parser21create_new_reproducer0B6_
FN:140,_RNCNvMNtCsc79359SY8tW_7youdusa6parserNtB4_6Parser32generate_call_to_medusa_property0B6_
FN:159,_RNCNvMNtCsc79359SY8tW_7youdusa6parserNtB4_6Parser17parse_cheats_data0B6_
FN:159,_RNCNCNvMNtCsc79359SY8tW_7youdusa6parserNtB6_6Parser17parse_cheats_data00B8_
FN:160,_RNCNvMNtCsc79359SY8tW_7youdusa6parserNtB4_6Parser17parse_cheats_datas_0B6_
FN:164,_RNCNCNvMNtCsc79359SY8tW_7youdusa6parserNtB6_6Parser17parse_cheats_datas_00B8_
FN:164,_RNCNCNCNvMNtCsc79359SY8tW_7youdusa6parserNtB8_6Parser17parse_cheats_datas_000Ba_
FN:185,_RNCNvMNtCsc79359SY8tW_7youdusa6parserNtB4_6Parser27parse_medusa_call_arguments0B6_
FN:189,_RNCNvMNtCsc79359SY8tW_7youdusa6parserNtB4_6Parser27parse_medusa_call_argumentss_0B6_
FN:203,_RNCNvMNtCsc79359SY8tW_7youdusa6parserNtB4_6Parser27parse_medusa_call_argumentss0_0B6_
FN:45,_RNvMNtCsiQdczpv6fkd_7youdusa6parserNtB2_6Parser15get_reproducers
FN:219,_RNvNtNtCsiQdczpv6fkd_7youdusa6parser5testss_29test_process_line_new_failure
FN:236,_RNvNtNtCsiQdczpv6fkd_7youdusa6parser5testss_34test_process_line_only_new_failure
FN:247,_RNvNtNtCsiQdczpv6fkd_7youdusa6parser5testss_45test_process_line_fails_invalid_property_name
FN:262,_RNvNtNtCsiQdczpv6fkd_7youdusa6parser5testss_35test_process_line_add_from_sequence
FN:276,_RNvNtNtCsiQdczpv6fkd_7youdusa6parser5testss_30test_process_line_end_sequence
FN:296,_RNvNtNtCsiQdczpv6fkd_7youdusa6parser5testss_32test_create_new_ast_root_creates
FN:314,_RNvNtNtCsiQdczpv6fkd_7youdusa6parser5testss_37test_create_new_ast_root_wrong_format
FN:327,_RNvNtNtCsiQdczpv6fkd_7youdusa6parser5testss_34test_extract_property_name_classic
FN:338,_RNvNtNtCsiQdczpv6fkd_7youdusa6parser5testss_34test_extract_property_name_no_args
FN:348,_RNvNtNtCsiQdczpv6fkd_7youdusa6parser5testss_39test_extract_property_name_invalid_prop
FN:355,_RNvNtNtCsiQdczpv6fkd_7youdusa6parser5testss_30test_generate_unique_test_name
FN:366,_RNvNtNtCsiQdczpv6fkd_7youdusa6parser5testss_39test_generate_unique_test_name_multiple
FN:380,_RNvNtNtCsiQdczpv6fkd_7youdusa6parser5testss_47test_generate_unique_test_name_prop_with_number
FN:396,_RNvNtNtCsiQdczpv6fkd_7youdusa6parser5testss_24test_add_new_call_to_ast
FN:408,_RNvNtNtCsiQdczpv6fkd_7youdusa6parser5testss_37test_add_new_call_to_ast_wrong_cheats
FN:423,_RNvNtNtCsiQdczpv6fkd_7youdusa6parser5testss_34test_add_new_call_to_as_wrong_args
FN:440,_RNvNtNtCsiQdczpv6fkd_7youdusa6parser5testss_32test_parse_medusa_call_arguments
FN:452,_RNvNtNtCsiQdczpv6fkd_7youdusa6parser5testss_38test_parse_medusa_call_arguments_tuple
FN:464,_RNvNtNtCsiQdczpv6fkd_7youdusa6parser5testss_38test_parse_medusa_call_arguments_bytes
FN:26,_RNvMNtCsiQdczpv6fkd_7youdusa6parserNtB2_6Parser12process_line
FN:49,_RNvMNtCsiQdczpv6fkd_7youdusa6parserNtB2_6Parser3new
FN:58,_RNvMNtCsiQdczpv6fkd_7youdusa6parserNtB2_6Parser21create_new_reproducer
FN:70,_RNvMNtCsiQdczpv6fkd_7youdusa6parserNtB2_6Parser21extract_property_name
FN:81,_RNvMNtCsiQdczpv6fkd_7youdusa6parserNtB2_6Parser25generate_unique_test_name
FN:96,_RNvMNtCsiQdczpv6fkd_7youdusa6parserNtB2_6Parser14create_new_ast
FN:103,_RNvMNtCsiQdczpv6fkd_7youdusa6parserNtB2_6Parser19add_new_call_to_ast
FN:137,_RNvMNtCsiQdczpv6fkd_7youdusa6parserNtB2_6Parser32generate_call_to_medusa_property
FN:156,_RNvMNtCsiQdczpv6fkd_7youdusa6parserNtB2_6Parser17parse_cheats_data
FN:183,_RNvMNtCsiQdczpv6fkd_7youdusa6parserNtB2_6Parser27parse_medusa_call_arguments
FN:30,_RNCNvMNtCsiQdczpv6fkd_7youdusa6parserNtB4_6Parser12process_line0B6_
FN:61,_RNCNvMNtCsiQdczpv6fkd_7youdusa6parserNtB4_6Parser21create_new_reproducer0B6_
FN:140,_RNCNvMNtCsiQdczpv6fkd_7youdusa6parserNtB4_6Parser32generate_call_to_medusa_property0B6_
FN:159,_RNCNvMNtCsiQdczpv6fkd_7youdusa6parserNtB4_6Parser17parse_cheats_data0B6_
FN:159,_RNCNCNvMNtCsiQdczpv6fkd_7youdusa6parserNtB6_6Parser17parse_cheats_data00B8_
FN:160,_RNCNvMNtCsiQdczpv6fkd_7youdusa6parserNtB4_6Parser17parse_cheats_datas_0B6_
FN:164,_RNCNCNvMNtCsiQdczpv6fkd_7youdusa6parserNtB6_6Parser17parse_cheats_datas_00B8_
FN:164,_RNCNCNCNvMNtCsiQdczpv6fkd_7youdusa6parserNtB8_6Parser17parse_cheats_datas_000Ba_
FN:185,_RNCNvMNtCsiQdczpv6fkd_7youdusa6parserNtB4_6Parser27parse_medusa_call_arguments0B6_
FN:189,_RNCNvMNtCsiQdczpv6fkd_7youdusa6parserNtB4_6Parser27parse_medusa_call_argumentss_0B6_
FN:203,_RNCNvMNtCsiQdczpv6fkd_7youdusa6parserNtB4_6Parser27parse_medusa_call_argumentss0_0B6_
FNDA:70,_RNvMNtCsc79359SY8tW_7youdusa6parserNtB2_6Parser12process_line
FNDA:4,_RNvMNtCsc79359SY8tW_7youdusa6parserNtB2_6Parser15get_reproducers
FNDA:4,_RNvMNtCsc79359SY8tW_7youdusa6parserNtB2_6Parser3new
FNDA:4,_RNvMNtCsc79359SY8tW_7youdusa6parserNtB2_6Parser21create_new_reproducer
FNDA:26,_RNvMNtCsc79359SY8tW_7youdusa6parserNtB2_6Parser21extract_property_name
FNDA:4,_RNvMNtCsc79359SY8tW_7youdusa6parserNtB2_6Parser25generate_unique_test_name
FNDA:4,_RNvMNtCsc79359SY8tW_7youdusa6parserNtB2_6Parser14create_new_ast
FNDA:22,_RNvMNtCsc79359SY8tW_7youdusa6parserNtB2_6Parser19add_new_call_to_ast
FNDA:22,_RNvMNtCsc79359SY8tW_7youdusa6parserNtB2_6Parser32generate_call_to_medusa_property
FNDA:22,_RNvMNtCsc79359SY8tW_7youdusa6parserNtB2_6Parser17parse_cheats_data
FNDA:22,_RNvMNtCsc79359SY8tW_7youdusa6parserNtB2_6Parser27parse_medusa_call_arguments
FNDA:66,_RNCNvMNtCsc79359SY8tW_7youdusa6parserNtB4_6Parser12process_line0B6_
FNDA:0,_RNCNvMNtCsc79359SY8tW_7youdusa6parserNtB4_6Parser21create_new_reproducer0B6_
FNDA:0,_RNCNvMNtCsc79359SY8tW_7youdusa6parserNtB4_6Parser32generate_call_to_medusa_property0B6_
FNDA:22,_RNCNvMNtCsc79359SY8tW_7youdusa6parserNtB4_6Parser17parse_cheats_data0B6_
FNDA:22,_RNCNCNvMNtCsc79359SY8tW_7youdusa6parserNtB6_6Parser17parse_cheats_data00B8_
FNDA:22,_RNCNvMNtCsc79359SY8tW_7youdusa6parserNtB4_6Parser17parse_cheats_datas_0B6_
FNDA:132,_RNCNCNvMNtCsc79359SY8tW_7youdusa6parserNtB6_6Parser17parse_cheats_datas_00B8_
FNDA:132,_RNCNCNCNvMNtCsc79359SY8tW_7youdusa6parserNtB8_6Parser17parse_cheats_datas_000Ba_
FNDA:5534,_RNCNvMNtCsc79359SY8tW_7youdusa6parserNtB4_6Parser27parse_medusa_call_arguments0B6_
FNDA:22,_RNCNvMNtCsc79359SY8tW_7youdusa6parserNtB4_6Parser27parse_medusa_call_argumentss_0B6_
FNDA:22,_RNCNvMNtCsc79359SY8tW_7youdusa6parserNtB4_6Parser27parse_medusa_call_argumentss0_0B6_
FNDA:0,_RNvMNtCsiQdczpv6fkd_7youdusa6parserNtB2_6Parser15get_reproducers
FNDA:1,_RNvNtNtCsiQdczpv6fkd_7youdusa6parser5testss_29test_process_line_new_failure
FNDA:1,_RNvNtNtCsiQdczpv6fkd_7youdusa6parser5testss_34test_process_line_only_new_failure
FNDA:1,_RNvNtNtCsiQdczpv6fkd_7youdusa6parser5testss_45test_process_line_fails_invalid_property_name
FNDA:1,_RNvNtNtCsiQdczpv6fkd_7youdusa6parser5testss_35test_process_line_add_from_sequence
FNDA:1,_RNvNtNtCsiQdczpv6fkd_7youdusa6parser5testss_30test_process_line_end_sequence
FNDA:1,_RNvNtNtCsiQdczpv6fkd_7youdusa6parser5testss_32test_create_new_ast_root_creates
FNDA:1,_RNvNtNtCsiQdczpv6fkd_7youdusa6parser5testss_37test_create_new_ast_root_wrong_format
FNDA:1,_RNvNtNtCsiQdczpv6fkd_7youdusa6parser5testss_34test_extract_property_name_classic
FNDA:1,_RNvNtNtCsiQdczpv6fkd_7youdusa6parser5testss_34test_extract_property_name_no_args
FNDA:1,_RNvNtNtCsiQdczpv6fkd_7youdusa6parser5testss_39test_extract_property_name_invalid_prop
FNDA:1,_RNvNtNtCsiQdczpv6fkd_7youdusa6parser5testss_30test_generate_unique_test_name
FNDA:1,_RNvNtNtCsiQdczpv6fkd_7youdusa6parser5testss_39test_generate_unique_test_name_multiple
FNDA:1,_RNvNtNtCsiQdczpv6fkd_7youdusa6parser5testss_47test_generate_unique_test_name_prop_with_number
FNDA:1,_RNvNtNtCsiQdczpv6fkd_7youdusa6parser5testss_24test_add_new_call_to_ast
FNDA:1,_RNvNtNtCsiQdczpv6fkd_7youdusa6parser5testss_37test_add_new_call_to_ast_wrong_cheats
FNDA:1,_RNvNtNtCsiQdczpv6fkd_7youdusa6parser5testss_34test_add_new_call_to_as_wrong_args
FNDA:1,_RNvNtNtCsiQdczpv6fkd_7youdusa6parser5testss_32test_parse_medusa_call_arguments
FNDA:1,_RNvNtNtCsiQdczpv6fkd_7youdusa6parser5testss_38test_parse_medusa_call_arguments_tuple
FNDA:1,_RNvNtNtCsiQdczpv6fkd_7youdusa6parser5testss_38test_parse_medusa_call_arguments_bytes
FNDA:7,_RNvMNtCsiQdczpv6fkd_7youdusa6parserNtB2_6Parser12process_line
FNDA:19,_RNvMNtCsiQdczpv6fkd_7youdusa6parserNtB2_6Parser3new
FNDA:6,_RNvMNtCsiQdczpv6fkd_7youdusa6parserNtB2_6Parser21create_new_reproducer
FNDA:12,_RNvMNtCsiQdczpv6fkd_7youdusa6parserNtB2_6Parser21extract_property_name
FNDA:18,_RNvMNtCsiQdczpv6fkd_7youdusa6parserNtB2_6Parser25generate_unique_test_name
FNDA:7,_RNvMNtCsiQdczpv6fkd_7youdusa6parserNtB2_6Parser14create_new_ast
FNDA:4,_RNvMNtCsiQdczpv6fkd_7youdusa6parserNtB2_6Parser19add_new_call_to_ast
FNDA:3,_RNvMNtCsiQdczpv6fkd_7youdusa6parserNtB2_6Parser32generate_call_to_medusa_property
FNDA:4,_RNvMNtCsiQdczpv6fkd_7youdusa6parserNtB2_6Parser17parse_cheats_data
FNDA:5,_RNvMNtCsiQdczpv6fkd_7youdusa6parserNtB2_6Parser27parse_medusa_call_arguments
FNDA:3,_RNCNvMNtCsiQdczpv6fkd_7youdusa6parserNtB4_6Parser12process_line0B6_
FNDA:2,_RNCNvMNtCsiQdczpv6fkd_7youdusa6parserNtB4_6Parser21create_new_reproducer0B6_
FNDA:1,_RNCNvMNtCsiQdczpv6fkd_7youdusa6parserNtB4_6Parser32generate_call_to_medusa_property0B6_
FNDA:4,_RNCNvMNtCsiQdczpv6fkd_7youdusa6parserNtB4_6Parser17parse_cheats_data0B6_
FNDA:4,_RNCNCNvMNtCsiQdczpv6fkd_7youdusa6parserNtB6_6Parser17parse_cheats_data00B8_
FNDA:4,_RNCNvMNtCsiQdczpv6fkd_7youdusa6parserNtB4_6Parser17parse_cheats_datas_0B6_
FNDA:24,_RNCNCNvMNtCsiQdczpv6fkd_7youdusa6parserNtB6_6Parser17parse_cheats_datas_00B8_
FNDA:24,_RNCNCNCNvMNtCsiQdczpv6fkd_7youdusa6parserNtB8_6Parser17parse_cheats_datas_000Ba_
FNDA:937,_RNCNvMNtCsiQdczpv6fkd_7youdusa6parserNtB4_6Parser27parse_medusa_call_arguments0B6_
FNDA:5,_RNCNvMNtCsiQdczpv6fkd_7youdusa6parserNtB4_6Parser27parse_medusa_call_argumentss_0B6_
FNDA:5,_RNCNvMNtCsiQdczpv6fkd_7youdusa6parserNtB4_6Parser27parse_medusa_call_argumentss0_0B6_
FNF:41
FNH:41
DA:26,77
DA:27,77
DA:28,8
DA:29,8
DA:30,69
DA:31,33
DA:33,23
DA:34,23
DA:35,46
DA:36,5
DA:37,5
DA:38,5
DA:39,41
DA:41,76
DA:42,77
DA:45,4
DA:46,4
DA:47,4
DA:49,23
DA:50,23
DA:51,23
DA:52,23
DA:53,23
DA:54,23
DA:55,23
DA:58,10
DA:59,10
DA:60,10
DA:61,10
DA:62,8
DA:63,8
DA:64,8
DA:65,10
DA:70,38
DA:71,38
DA:72,38
DA:73,34
DA:74,34
DA:75,34
DA:76,34
DA:77,38
DA:81,22
DA:82,22
DA:83,22
DA:84,22
DA:85,22
DA:86,22
DA:87,22
DA:88,22
DA:89,12
DA:91,10
DA:93,22
DA:96,11
DA:97,11
DA:98,11
DA:99,11
DA:103,26
DA:105,26
DA:106,26
DA:107,26
DA:110,25
DA:111,25
DA:112,25
DA:115,24
DA:116,24
DA:117,24
DA:118,24
DA:119,24
DA:120,24
DA:121,24
DA:122,24
DA:123,24
DA:124,24
DA:125,24
DA:126,24
DA:127,24
DA:128,0
DA:131,24
DA:132,26
DA:137,25
DA:138,25
DA:139,25
DA:140,25
DA:142,24
DA:143,24
DA:144,24
DA:146,24
DA:147,24
DA:148,24
DA:149,24
DA:150,24
DA:151,24
DA:152,25
DA:156,26
DA:157,26
DA:158,26
DA:159,26
DA:160,26
DA:161,26
DA:162,26
DA:163,26
DA:164,156
DA:165,26
DA:166,26
DA:167,26
DA:168,26
DA:169,26
DA:170,26
DA:171,25
DA:172,25
DA:173,25
DA:175,26
DA:176,26
DA:183,27
DA:184,27
DA:185,6471
DA:186,27
DA:187,27
DA:188,27
DA:189,27
DA:190,27
DA:191,27
DA:192,27
DA:193,27
DA:194,27
DA:195,27
DA:196,27
DA:197,27
DA:198,27
DA:199,27
DA:200,27
DA:201,27
DA:202,27
DA:203,27
DA:204,27
DA:205,27
DA:206,27
DA:207,27
DA:208,27
DA:209,27
DA:210,27
DA:211,27
DA:219,1
DA:220,1
DA:221,1
DA:222,1
DA:223,1
DA:224,1
DA:225,1
DA:226,1
DA:227,1
DA:228,1
DA:229,1
DA:230,1
DA:231,1
DA:232,1
DA:233,1
DA:236,1
DA:237,1
DA:238,1
DA:239,1
DA:240,1
DA:241,1
DA:242,1
DA:243,1
DA:244,1
DA:247,1
DA:248,1
DA:249,1
DA:250,1
DA:251,1
DA:252,1
DA:253,1
DA:254,1
DA:255,1
DA:256,1
DA:257,1
DA:258,1
DA:262,1
DA:263,1
DA:264,1
DA:265,1
DA:266,1
DA:267,1
DA:268,1
DA:269,1
DA:270,1
DA:271,1
DA:272,1
DA:273,1
DA:276,1
DA:277,1
DA:278,1
DA:279,1
DA:280,1
DA:281,1
DA:283,1
DA:284,1
DA:285,1
DA:286,1
DA:287,1
DA:288,1
DA:289,1
DA:290,1
DA:291,1
DA:292,1
DA:293,1
DA:296,1
DA:297,1
DA:298,1
DA:299,1
DA:300,1
DA:301,1
DA:302,1
DA:303,1
DA:305,1
DA:306,1
DA:307,1
DA:308,1
DA:309,1
DA:310,1
DA:311,1
DA:314,1
DA:315,1
DA:316,1
DA:317,1
DA:318,1
DA:319,1
DA:320,1
DA:321,1
DA:322,1
DA:323,1
DA:324,1
DA:327,1
DA:328,1
DA:329,1
DA:330,1
DA:331,1
DA:332,1
DA:333,1
DA:334,1
DA:335,1
DA:338,1
DA:339,1
DA:340,1
DA:341,1
DA:342,1
DA:343,1
DA:344,1
DA:345,1
DA:348,1
DA:349,1
DA:350,1
DA:351,1
DA:352,1
DA:355,1
DA:356,1
DA:357,1
DA:358,1
DA:359,1
DA:360,1
DA:361,1
DA:362,1
DA:363,1
DA:366,1
DA:367,1
DA:368,1
DA:369,1
DA:371,11
DA:372,10
DA:373,10
DA:374,10
DA:375,10
DA:377,1
DA:380,1
DA:381,1
DA:382,1
DA:383,1
DA:384,1
DA:385,1
DA:386,1
DA:387,1
DA:389,1
DA:390,1
DA:391,1
DA:392,1
DA:393,1
DA:396,1
DA:397,1
DA:398,1
DA:399,1
DA:400,1
DA:401,1
DA:402,1
DA:403,1
DA:404,1
DA:405,1
DA:408,1
DA:409,1
DA:410,1
DA:411,1
DA:412,1
DA:413,1
DA:414,1
DA:415,1
DA:416,1
DA:417,1
DA:418,1
DA:419,1
DA:420,1
DA:423,1
DA:424,1
DA:425,1
DA:426,1
DA:427,1
DA:428,1
DA:429,1
DA:430,1
DA:431,1
DA:432,1
DA:433,1
DA:434,1
DA:435,1
DA:440,1
DA:441,1
DA:442,1
DA:443,1
DA:444,1
DA:445,1
DA:446,1
DA:448,1
DA:449,1
DA:452,1
DA:453,1
DA:454,1
DA:455,1
DA:456,1
DA:457,1
DA:458,1
DA:460,1
DA:461,1
DA:464,1
DA:465,1
DA:466,1
DA:467,1
DA:468,1
DA:469,1
DA:470,1
DA:472,1
DA:473,1
BRF:0
BRH:0
LF:362
LH:361
end_of_record
SF:/Volumes/Documents/defiSucks/youdusa-rs/src/reader.rs
FN:12,_RNvMNtCsc79359SY8tW_7youdusa6readerNtB2_6Reader3new
FN:18,_RNvMNtCsc79359SY8tW_7youdusa6readerNtB2_6Reader5parse
FN:12,_RNvMNtCsiQdczpv6fkd_7youdusa6readerNtB2_6Reader3new
FN:18,_RNvMNtCsiQdczpv6fkd_7youdusa6readerNtB2_6Reader5parse
FNDA:4,_RNvMNtCsc79359SY8tW_7youdusa6readerNtB2_6Reader3new
FNDA:4,_RNvMNtCsc79359SY8tW_7youdusa6readerNtB2_6Reader5parse
FNDA:0,_RNvMNtCsiQdczpv6fkd_7youdusa6readerNtB2_6Reader3new
FNDA:0,_RNvMNtCsiQdczpv6fkd_7youdusa6readerNtB2_6Reader5parse
FNF:2
FNH:2
DA:12,4
DA:13,4
DA:14,4
DA:15,4
DA:16,4
DA:18,4
DA:19,4
DA:21,70
DA:22,70
DA:23,70
DA:24,70
DA:27,4
DA:28,4
BRF:0
BRH:0
LF:13
LH:13
end_of_record
